; Function Attrs: mustprogress nounwind willreturn uwtable
define void @PMIx_Proc_info_destruct(ptr noundef captures(none) initializes((0, 264), (280, 296)) %0) local_unnamed_addr #16 {
  %2 = getelementptr inbounds nuw i8, ptr %0, i64 264
  %3 = load ptr, ptr %2, align 8, !tbaa !28
  %.not.i = icmp eq ptr %3, null
  br i1 %.not.i, label %5, label %4

4:                                                ; preds = %1
  tail call void @free(ptr noundef nonnull %3) #44
  br label %5

5:                                                ; preds = %4, %1
  %6 = getelementptr inbounds nuw i8, ptr %0, i64 272
  %7 = load ptr, ptr %6, align 8, !tbaa !30
  %.not9.i = icmp eq ptr %7, null
  br i1 %.not9.i, label %pmix_bfrops_base_tma_proc_info_destruct.exit, label %8

8:                                                ; preds = %5
  tail call void @free(ptr noundef nonnull %7) #44
  br label %pmix_bfrops_base_tma_proc_info_destruct.exit

pmix_bfrops_base_tma_proc_info_destruct.exit:     ; preds = %5, %8
  tail call void @llvm.memset.p0.i64(ptr noundef nonnull align 8 dereferenceable(296) %0, i8 0, i64 296, i1 false)
  ret void
}